target datalayout = "e-m:e-p270:32:32-p271:32:32-p272:64:64-i64:64-i128:128-f80:128-n8:16:32:64-S128"
target triple = "x86_64-pc-linux-gnu"

%struct.tng_trajectory = type { ptr, ptr, i64, ptr, ptr, ptr, ptr, ptr, ptr, i8, i8, ptr, ptr, ptr, ptr, ptr, ptr, ptr, ptr, ptr, i64, i64, i8, i64, i64, i64, double, i64, ptr, ptr, i64, i64, i64, i64, i64, %struct.tng_trajectory_frame_set, i64, i64, i64, i32, ptr, i32, ptr, ptr, ptr, double }
%struct.tng_trajectory_frame_set = type { i64, ptr, i64, i64, i64, i64, ptr, i64, i64, i64, i64, i64, i64, i64, double, i32, ptr, i32, ptr }
%struct.tng_gen_block = type { i64, i64, i64, [16 x i8], ptr, i64, i64, i64, ptr, i64, i64, ptr, ptr, ptr }

@stderr = external global ptr, align 8
@.str = private unnamed_addr constant [45 x i8] c"TNG library: Cannot allocate memory. %s: %d\0A\00", align 1
@.str.1 = private unnamed_addr constant [130 x i8] c"generated/home/dtcxzyw/WorkSpace/Projects/compilers/llvm-opt-benchmark/bench/gromacs/gromacs/src/external/tng_io/src/lib/tng_io.c\00", align 1

; Function Attrs: nounwind uwtable
define internal i32 @tng_block_destroy(ptr noundef %0) #0 {
  %2 = alloca i32, align 4
  %3 = alloca ptr, align 8
  %4 = alloca ptr, align 8
  %5 = alloca i32, align 4
  store ptr %0, ptr %3, align 8, !tbaa !235
  call void @llvm.lifetime.start.p0(i64 8, ptr %4) #11
  %6 = load ptr, ptr %3, align 8, !tbaa !235
  %7 = load ptr, ptr %6, align 8, !tbaa !221
  store ptr %7, ptr %4, align 8, !tbaa !221
  %8 = load ptr, ptr %3, align 8, !tbaa !235
  %9 = load ptr, ptr %8, align 8, !tbaa !221
  %10 = icmp ne ptr %9, null
  br i1 %10, label %12, label %11

11:                                               ; preds = %1
  store i32 0, ptr %2, align 4
  store i32 1, ptr %5, align 4
  br label %49

12:                                               ; preds = %1
  %13 = load ptr, ptr %4, align 8, !tbaa !221
  %14 = getelementptr inbounds nuw %struct.tng_gen_block, ptr %13, i32 0, i32 4
  %15 = load ptr, ptr %14, align 8, !tbaa !237
  %16 = icmp ne ptr %15, null
  br i1 %16, label %17, label %23

17:                                               ; preds = %12
  %18 = load ptr, ptr %4, align 8, !tbaa !221
  %19 = getelementptr inbounds nuw %struct.tng_gen_block, ptr %18, i32 0, i32 4
  %20 = load ptr, ptr %19, align 8, !tbaa !237
  call void @free(ptr noundef %20) #11
  %21 = load ptr, ptr %4, align 8, !tbaa !221
  %22 = getelementptr inbounds nuw %struct.tng_gen_block, ptr %21, i32 0, i32 4
  store ptr null, ptr %22, align 8, !tbaa !237
  br label %23

23:                                               ; preds = %17, %12
  %24 = load ptr, ptr %4, align 8, !tbaa !221
  %25 = getelementptr inbounds nuw %struct.tng_gen_block, ptr %24, i32 0, i32 12
  %26 = load ptr, ptr %25, align 8, !tbaa !239
  %27 = icmp ne ptr %26, null
  br i1 %27, label %28, label %34

28:                                               ; preds = %23
  %29 = load ptr, ptr %4, align 8, !tbaa !221
  %30 = getelementptr inbounds nuw %struct.tng_gen_block, ptr %29, i32 0, i32 12
  %31 = load ptr, ptr %30, align 8, !tbaa !239
  call void @free(ptr noundef %31) #11
  %32 = load ptr, ptr %4, align 8, !tbaa !221
  %33 = getelementptr inbounds nuw %struct.tng_gen_block, ptr %32, i32 0, i32 12
  store ptr null, ptr %33, align 8, !tbaa !239
  br label %34

34:                                               ; preds = %28, %23
  %35 = load ptr, ptr %4, align 8, !tbaa !221
  %36 = getelementptr inbounds nuw %struct.tng_gen_block, ptr %35, i32 0, i32 13
  %37 = load ptr, ptr %36, align 8, !tbaa !240
  %38 = icmp ne ptr %37, null
  br i1 %38, label %39, label %45

39:                                               ; preds = %34
  %40 = load ptr, ptr %4, align 8, !tbaa !221
  %41 = getelementptr inbounds nuw %struct.tng_gen_block, ptr %40, i32 0, i32 13
  %42 = load ptr, ptr %41, align 8, !tbaa !240
  call void @free(ptr noundef %42) #11
  %43 = load ptr, ptr %4, align 8, !tbaa !221
  %44 = getelementptr inbounds nuw %struct.tng_gen_block, ptr %43, i32 0, i32 13
  store ptr null, ptr %44, align 8, !tbaa !240
  br label %45

45:                                               ; preds = %39, %34
  %46 = load ptr, ptr %3, align 8, !tbaa !235
  %47 = load ptr, ptr %46, align 8, !tbaa !221
  call void @free(ptr noundef %47) #11
  %48 = load ptr, ptr %3, align 8, !tbaa !235
  store ptr null, ptr %48, align 8, !tbaa !221
  store i32 0, ptr %2, align 4
  store i32 1, ptr %5, align 4
  br label %49

49:                                               ; preds = %45, %11
  call void @llvm.lifetime.end.p0(i64 8, ptr %4) #11
  %50 = load i32, ptr %2, align 4
  ret i32 %50
}

; Function Attrs: nounwind uwtable
define internal i32 @tng_block_init(ptr noundef %0) #0 {
  %2 = alloca i32, align 4
  %3 = alloca ptr, align 8
  %4 = alloca ptr, align 8
  %5 = alloca i32, align 4
  store ptr %0, ptr %3, align 8, !tbaa !235
  call void @llvm.lifetime.start.p0(i64 8, ptr %4) #11
  %6 = call noalias ptr @malloc(i64 noundef 120) #13
  %7 = load ptr, ptr %3, align 8, !tbaa !235
  store ptr %6, ptr %7, align 8, !tbaa !221
  %8 = load ptr, ptr %3, align 8, !tbaa !235
  %9 = load ptr, ptr %8, align 8, !tbaa !221
  %10 = icmp ne ptr %9, null
  br i1 %10, label %14, label %11

11:                                               ; preds = %1
  %12 = load ptr, ptr @stderr, align 8, !tbaa !24
  %13 = call i32 (ptr, ptr, ...) @fprintf(ptr noundef %12, ptr noundef @.str, ptr noundef @.str.1, i32 noundef 940) #11
  store i32 2, ptr %2, align 4
  store i32 1, ptr %5, align 4
  br label %34

14:                                               ; preds = %1
  %15 = load ptr, ptr %3, align 8, !tbaa !235
  %16 = load ptr, ptr %15, align 8, !tbaa !221
  store ptr %16, ptr %4, align 8, !tbaa !221
  %17 = load ptr, ptr %4, align 8, !tbaa !221
  %18 = getelementptr inbounds nuw %struct.tng_gen_block, ptr %17, i32 0, i32 2
  store i64 -1, ptr %18, align 8, !tbaa !230
  %19 = load ptr, ptr %4, align 8, !tbaa !221
  %20 = getelementptr inbounds nuw %struct.tng_gen_block, ptr %19, i32 0, i32 3
  %21 = getelementptr inbounds [16 x i8], ptr %20, i64 0, i64 0
  call void @llvm.memset.p0.i64(ptr align 8 %21, i8 0, i64 16, i1 false)
  %22 = load ptr, ptr %4, align 8, !tbaa !221
  %23 = getelementptr inbounds nuw %struct.tng_gen_block, ptr %22, i32 0, i32 4
  store ptr null, ptr %23, align 8, !tbaa !237
  %24 = load ptr, ptr %4, align 8, !tbaa !221
  %25 = getelementptr inbounds nuw %struct.tng_gen_block, ptr %24, i32 0, i32 5
  store i64 8, ptr %25, align 8, !tbaa !238
  %26 = load ptr, ptr %4, align 8, !tbaa !221
  %27 = getelementptr inbounds nuw %struct.tng_gen_block, ptr %26, i32 0, i32 12
  store ptr null, ptr %27, align 8, !tbaa !239
  %28 = load ptr, ptr %4, align 8, !tbaa !221
  %29 = getelementptr inbounds nuw %struct.tng_gen_block, ptr %28, i32 0, i32 0
  store i64 0, ptr %29, align 8, !tbaa !223
  %30 = load ptr, ptr %4, align 8, !tbaa !221
  %31 = getelementptr inbounds nuw %struct.tng_gen_block, ptr %30, i32 0, i32 13
  store ptr null, ptr %31, align 8, !tbaa !240
  %32 = load ptr, ptr %4, align 8, !tbaa !221
  %33 = getelementptr inbounds nuw %struct.tng_gen_block, ptr %32, i32 0, i32 1
  store i64 0, ptr %33, align 8, !tbaa !241
  store i32 0, ptr %2, align 4
  store i32 1, ptr %5, align 4
  br label %34

34:                                               ; preds = %14, %11
  call void @llvm.lifetime.end.p0(i64 8, ptr %4) #11
  %35 = load i32, ptr %2, align 4
  ret i32 %35
}

; Function Attrs: nounwind uwtable
define i32 @tng_file_headers_read(ptr noundef %0, i8 noundef signext %1) #0 {
  %3 = alloca i32, align 4
  %4 = alloca ptr, align 8
  %5 = alloca i8, align 1
  %6 = alloca i64, align 8
  %7 = alloca ptr, align 8
  %8 = alloca i32, align 4
  store ptr %0, ptr %4, align 8, !tbaa !3
  store i8 %1, ptr %5, align 1, !tbaa !23
  call void @llvm.lifetime.start.p0(i64 8, ptr %6) #11
  store i64 0, ptr %6, align 8, !tbaa !26
  call void @llvm.lifetime.start.p0(i64 8, ptr %7) #11
  %9 = load ptr, ptr %4, align 8, !tbaa !3
  %10 = getelementptr inbounds nuw %struct.tng_trajectory, ptr %9, i32 0, i32 38
  store i64 0, ptr %10, align 8, !tbaa !157
  %11 = load ptr, ptr %4, align 8, !tbaa !3
  %12 = call i32 @tng_input_file_init(ptr noundef %11)
  %13 = icmp ne i32 %12, 0
  br i1 %13, label %14, label %15

14:                                               ; preds = %2
  store i32 2, ptr %3, align 4
  store i32 1, ptr %8, align 4
  br label %66

15:                                               ; preds = %2
  %16 = load ptr, ptr %4, align 8, !tbaa !3
  %17 = getelementptr inbounds nuw %struct.tng_trajectory, ptr %16, i32 0, i32 1
  %18 = load ptr, ptr %17, align 8, !tbaa !136
  %19 = call i32 @fseeko64(ptr noundef %18, i64 noundef 0, i32 noundef 0)
  %20 = call i32 @tng_block_init(ptr noundef %7)
  br label %21

21:                                               ; preds = %44, %15
  %22 = load i64, ptr %6, align 8, !tbaa !26
  %23 = load ptr, ptr %4, align 8, !tbaa !3
  %24 = getelementptr inbounds nuw %struct.tng_trajectory, ptr %23, i32 0, i32 2
  %25 = load i64, ptr %24, align 8, !tbaa !137
  %26 = icmp slt i64 %22, %25
  br i1 %26, label %27, label %42

27:                                               ; preds = %21
  %28 = load ptr, ptr %4, align 8, !tbaa !3
  %29 = load ptr, ptr %7, align 8, !tbaa !221
  %30 = call i32 @tng_block_header_read(ptr noundef %28, ptr noundef %29)
  %31 = icmp ne i32 %30, 2
  br i1 %31, label %32, label %42

32:                                               ; preds = %27
  %33 = load ptr, ptr %7, align 8, !tbaa !221
  %34 = getelementptr inbounds nuw %struct.tng_gen_block, ptr %33, i32 0, i32 2
  %35 = load i64, ptr %34, align 8, !tbaa !230
  %36 = icmp ne i64 %35, -1
  br i1 %36, label %37, label %42

37:                                               ; preds = %32
  %38 = load ptr, ptr %7, align 8, !tbaa !221
  %39 = getelementptr inbounds nuw %struct.tng_gen_block, ptr %38, i32 0, i32 2
  %40 = load i64, ptr %39, align 8, !tbaa !230
  %41 = icmp ne i64 %40, 2
  br label %42

42:                                               ; preds = %37, %32, %27, %21
  %43 = phi i1 [ false, %32 ], [ false, %27 ], [ false, %21 ], [ %41, %37 ]
  br i1 %43, label %44, label %53

44:                                               ; preds = %42
  %45 = load ptr, ptr %4, align 8, !tbaa !3
  %46 = load ptr, ptr %7, align 8, !tbaa !221
  %47 = load i8, ptr %5, align 1, !tbaa !23
  %48 = call i32 @tng_block_read_next(ptr noundef %45, ptr noundef %46, i8 noundef signext %47)
  %49 = load ptr, ptr %4, align 8, !tbaa !3
  %50 = getelementptr inbounds nuw %struct.tng_trajectory, ptr %49, i32 0, i32 1
  %51 = load ptr, ptr %50, align 8, !tbaa !136
  %52 = call i64 @ftello64(ptr noundef %51)
  store i64 %52, ptr %6, align 8, !tbaa !26
  br label %21, !llvm.loop !266

53:                                               ; preds = %42
  %54 = load ptr, ptr %7, align 8, !tbaa !221
  %55 = getelementptr inbounds nuw %struct.tng_gen_block, ptr %54, i32 0, i32 2
  %56 = load i64, ptr %55, align 8, !tbaa !230
  %57 = icmp eq i64 %56, 2
  br i1 %57, label %58, label %64

58:                                               ; preds = %53
  %59 = load ptr, ptr %4, align 8, !tbaa !3
  %60 = getelementptr inbounds nuw %struct.tng_trajectory, ptr %59, i32 0, i32 1
  %61 = load ptr, ptr %60, align 8, !tbaa !136
  %62 = load i64, ptr %6, align 8, !tbaa !26
  %63 = call i32 @fseeko64(ptr noundef %61, i64 noundef %62, i32 noundef 0)
  br label %64

64:                                               ; preds = %58, %53
  %65 = call i32 @tng_block_destroy(ptr noundef %7)
  store i32 0, ptr %3, align 4
  store i32 1, ptr %8, align 4
  br label %66

66:                                               ; preds = %64, %14
  call void @llvm.lifetime.end.p0(i64 8, ptr %7) #11
  call void @llvm.lifetime.end.p0(i64 8, ptr %6) #11
  %67 = load i32, ptr %3, align 4
  ret i32 %67
}