; Function Attrs: nounwind uwtable
define range(i32 0, 3) i32 @tng_file_headers_read(ptr noundef initializes((440, 448)) %0, i8 noundef signext %1) local_unnamed_addr #4 {
  %3 = getelementptr inbounds nuw i8, ptr %0, i64 440
  store i64 0, ptr %3, align 8, !tbaa !119
  %4 = tail call fastcc i32 @tng_input_file_init(ptr noundef %0)
  %.not = icmp eq i32 %4, 0
  br i1 %.not, label %5, label %46

5:                                                ; preds = %2
  %6 = getelementptr inbounds nuw i8, ptr %0, i64 8
  %7 = load ptr, ptr %6, align 8, !tbaa !137
  %8 = tail call i32 @fseeko64(ptr noundef %7, i64 noundef 0, i32 noundef 0)
  %9 = tail call noalias dereferenceable_or_null(120) ptr @malloc(i64 noundef 120) #28
  %.not.i = icmp eq ptr %9, null
  br i1 %.not.i, label %10, label %13

10:                                               ; preds = %5
  %11 = load ptr, ptr @stderr, align 8, !tbaa !14
  %12 = tail call i32 (ptr, ptr, ...) @fprintf(ptr noundef %11, ptr noundef nonnull @.str, ptr noundef nonnull @.str.1, i32 noundef 940) #29
  br label %tng_block_init.exit

13:                                               ; preds = %5
  %14 = getelementptr inbounds nuw i8, ptr %9, i64 16
  store i64 -1, ptr %14, align 8, !tbaa !183
  %15 = getelementptr inbounds nuw i8, ptr %9, i64 24
  %16 = getelementptr inbounds nuw i8, ptr %9, i64 48
  tail call void @llvm.memset.p0.i64(ptr noundef nonnull align 8 dereferenceable(24) %15, i8 0, i64 24, i1 false)
  store i64 8, ptr %16, align 8, !tbaa !185
  %17 = getelementptr inbounds nuw i8, ptr %9, i64 104
  tail call void @llvm.memset.p0.i64(ptr noundef nonnull align 8 dereferenceable(16) %9, i8 0, i64 16, i1 false)
  tail call void @llvm.memset.p0.i64(ptr noundef nonnull align 8 dereferenceable(16) %17, i8 0, i64 16, i1 false)
  br label %tng_block_init.exit

tng_block_init.exit:                              ; preds = %10, %13
  %18 = getelementptr inbounds nuw i8, ptr %0, i64 16
  %19 = load i64, ptr %18, align 8, !tbaa !191
  %20 = icmp sgt i64 %19, 0
  br i1 %20, label %.lr.ph, label %.critedge.thread

.lr.ph:                                           ; preds = %tng_block_init.exit
  %21 = getelementptr inbounds nuw i8, ptr %9, i64 16
  %22 = tail call fastcc i32 @tng_block_header_read(ptr noundef nonnull %0, ptr noundef %9)
  %.not1335 = icmp eq i32 %22, 2
  %.pre.pre2836 = load i64, ptr %21, align 8, !tbaa !183
  br i1 %.not1335, label %.critedge, label %.lr.ph39

23:                                               ; preds = %25
  %24 = tail call fastcc i32 @tng_block_header_read(ptr noundef nonnull %0, ptr noundef nonnull %9)
  %.not13 = icmp eq i32 %24, 2
  %.pre.pre28 = load i64, ptr %21, align 8, !tbaa !183
  br i1 %.not13, label %.critedge, label %.lr.ph39, !llvm.loop !273

.lr.ph39:                                         ; preds = %.lr.ph, %23
  %.pre.pre2838 = phi i64 [ %.pre.pre28, %23 ], [ %.pre.pre2836, %.lr.ph ]
  %.02137 = phi i64 [ %28, %23 ], [ 0, %.lr.ph ]
  switch i64 %.pre.pre2838, label %25 [
    i64 -1, label %.critedge
    i64 2, label %.critedge
  ]

25:                                               ; preds = %.lr.ph39
  %26 = tail call i32 @tng_block_read_next(ptr noundef nonnull %0, ptr noundef nonnull %9, i8 noundef signext %1)
  %27 = load ptr, ptr %6, align 8, !tbaa !137
  %28 = tail call i64 @ftello64(ptr noundef %27)
  %29 = load i64, ptr %18, align 8, !tbaa !191
  %30 = icmp slt i64 %28, %29
  br i1 %30, label %23, label %..critedge.loopexit_crit_edge, !llvm.loop !273

..critedge.loopexit_crit_edge:                    ; preds = %25
  %.pre.pre = load i64, ptr %21, align 8, !tbaa !183
  br label %.critedge

.critedge:                                        ; preds = %.lr.ph39, %.lr.ph39, %23, %.lr.ph, %..critedge.loopexit_crit_edge
  %.pre = phi i64 [ %.pre.pre, %..critedge.loopexit_crit_edge ], [ %.pre.pre2836, %.lr.ph ], [ %.pre.pre28, %23 ], [ %.pre.pre2838, %.lr.ph39 ], [ %.pre.pre2838, %.lr.ph39 ]
  %.0.lcssa.ph = phi i64 [ %28, %..critedge.loopexit_crit_edge ], [ 0, %.lr.ph ], [ %28, %23 ], [ %.02137, %.lr.ph39 ], [ %.02137, %.lr.ph39 ]
  %31 = icmp eq i64 %.pre, 2
  br i1 %31, label %32, label %.critedge.thread

32:                                               ; preds = %.critedge
  %33 = load ptr, ptr %6, align 8, !tbaa !137
  %34 = tail call i32 @fseeko64(ptr noundef %33, i64 noundef %.0.lcssa.ph, i32 noundef 0)
  br label %.critedge.thread

.critedge.thread:                                 ; preds = %tng_block_init.exit, %.critedge, %32
  %35 = getelementptr inbounds nuw i8, ptr %9, i64 40
  %36 = load ptr, ptr %35, align 8, !tbaa !187
  %.not16.i = icmp eq ptr %36, null
  br i1 %.not16.i, label %38, label %37

37:                                               ; preds = %.critedge.thread
  tail call void @free(ptr noundef nonnull %36) #26
  store ptr null, ptr %35, align 8, !tbaa !187
  br label %38

38:                                               ; preds = %37, %.critedge.thread
  %39 = getelementptr inbounds nuw i8, ptr %9, i64 104
  %40 = load ptr, ptr %39, align 8, !tbaa !188
  %.not17.i = icmp eq ptr %40, null
  br i1 %.not17.i, label %42, label %41

41:                                               ; preds = %38
  tail call void @free(ptr noundef nonnull %40) #26
  store ptr null, ptr %39, align 8, !tbaa !188
  br label %42

42:                                               ; preds = %41, %38
  %43 = getelementptr inbounds nuw i8, ptr %9, i64 112
  %44 = load ptr, ptr %43, align 8, !tbaa !189
  %.not18.i = icmp eq ptr %44, null
  br i1 %.not18.i, label %tng_block_destroy.exit, label %45

45:                                               ; preds = %42
  tail call void @free(ptr noundef nonnull %44) #26
  br label %tng_block_destroy.exit

tng_block_destroy.exit:                           ; preds = %42, %45
  tail call void @free(ptr noundef nonnull %9) #26
  br label %46

46:                                               ; preds = %2, %tng_block_destroy.exit
  %.011 = phi i32 [ 0, %tng_block_destroy.exit ], [ 2, %2 ]
  ret i32 %.011
}